target datalayout = "e-m:e-p270:32:32-p271:32:32-p272:64:64-i64:64-i128:128-f80:128-n8:16:32:64-S128"
target triple = "x86_64-unknown-linux-gnu"

%"class.icu_75::ConfusabledataBuilder" = type <{ ptr, ptr, ptr, ptr, ptr, ptr, ptr, ptr, ptr, ptr, i32, [4 x i8] }>
%struct.UParseError = type { i32, i32, [16 x i16], [16 x i16] }

@_ZN6icu_7521ConfusabledataBuilderC1EPNS_9SpoofImplER10UErrorCode = unnamed_addr alias void (ptr, ptr, ptr), ptr @_ZN6icu_7521ConfusabledataBuilderC2EPNS_9SpoofImplER10UErrorCode
@_ZN6icu_7521ConfusabledataBuilderD1Ev = unnamed_addr alias void (ptr), ptr @_ZN6icu_7521ConfusabledataBuilderD2Ev

; Function Attrs: mustprogress nounwind uwtable
define internal noundef signext i8 @_ZL9U_FAILURE10UErrorCode(i32 noundef %code) #1 {
entry:
  %code.addr = alloca i32, align 4
  store i32 %code, ptr %code.addr, align 4
  %0 = load i32, ptr %code.addr, align 4
  %cmp = icmp sgt i32 %0, 0
  %conv = zext i1 %cmp to i8
  ret i8 %conv
}

; Function Attrs: mustprogress uwtable
define void @_ZN6icu_7521ConfusabledataBuilder19buildConfusableDataEPNS_9SpoofImplEPKciPiP11UParseErrorR10UErrorCode(ptr noundef %spImpl, ptr noundef %confusables, i32 noundef %confusablesLen, ptr noundef %errorType, ptr noundef %pe, ptr noundef nonnull align 4 dereferenceable(4) %status) #0 align 2 personality ptr @__gxx_personality_v0 {
entry:
  %spImpl.addr = alloca ptr, align 8
  %confusables.addr = alloca ptr, align 8
  %confusablesLen.addr = alloca i32, align 4
  %errorType.addr = alloca ptr, align 8
  %pe.addr = alloca ptr, align 8
  %status.addr = alloca ptr, align 8
  %builder = alloca %"class.icu_75::ConfusabledataBuilder", align 8
  %exn.slot = alloca ptr, align 8
  %ehselector.slot = alloca i32, align 4
  store ptr %spImpl, ptr %spImpl.addr, align 8
  store ptr %confusables, ptr %confusables.addr, align 8
  store i32 %confusablesLen, ptr %confusablesLen.addr, align 4
  store ptr %errorType, ptr %errorType.addr, align 8
  store ptr %pe, ptr %pe.addr, align 8
  store ptr %status, ptr %status.addr, align 8
  %0 = load ptr, ptr %status.addr, align 8
  %1 = load i32, ptr %0, align 4
  %call = call noundef signext i8 @_ZL9U_FAILURE10UErrorCode(i32 noundef %1)
  %tobool = icmp ne i8 %call, 0
  br i1 %tobool, label %if.then, label %if.end

if.then:                                          ; preds = %entry
  br label %return

if.end:                                           ; preds = %entry
  %2 = load ptr, ptr %spImpl.addr, align 8
  %3 = load ptr, ptr %status.addr, align 8
  call void @_ZN6icu_7521ConfusabledataBuilderC1EPNS_9SpoofImplER10UErrorCode(ptr noundef nonnull align 8 dereferenceable(84) %builder, ptr noundef %2, ptr noundef nonnull align 4 dereferenceable(4) %3)
  %4 = load ptr, ptr %confusables.addr, align 8
  %5 = load i32, ptr %confusablesLen.addr, align 4
  %6 = load ptr, ptr %status.addr, align 8
  invoke void @_ZN6icu_7521ConfusabledataBuilder5buildEPKciR10UErrorCode(ptr noundef nonnull align 8 dereferenceable(84) %builder, ptr noundef %4, i32 noundef %5, ptr noundef nonnull align 4 dereferenceable(4) %6)
          to label %invoke.cont unwind label %lpad

invoke.cont:                                      ; preds = %if.end
  %7 = load ptr, ptr %status.addr, align 8
  %8 = load i32, ptr %7, align 4
  %call2 = invoke noundef signext i8 @_ZL9U_FAILURE10UErrorCode(i32 noundef %8)
          to label %invoke.cont1 unwind label %lpad

invoke.cont1:                                     ; preds = %invoke.cont
  %tobool3 = icmp ne i8 %call2, 0
  br i1 %tobool3, label %land.lhs.true, label %if.end5

land.lhs.true:                                    ; preds = %invoke.cont1
  %9 = load ptr, ptr %errorType.addr, align 8
  %cmp = icmp ne ptr %9, null
  br i1 %cmp, label %if.then4, label %if.end5

if.then4:                                         ; preds = %land.lhs.true
  %10 = load ptr, ptr %errorType.addr, align 8
  store i32 1, ptr %10, align 4
  %fLineNum = getelementptr inbounds %"class.icu_75::ConfusabledataBuilder", ptr %builder, i32 0, i32 10
  %11 = load i32, ptr %fLineNum, align 8
  %12 = load ptr, ptr %pe.addr, align 8
  %line = getelementptr inbounds %struct.UParseError, ptr %12, i32 0, i32 0
  store i32 %11, ptr %line, align 4
  br label %if.end5

lpad:                                             ; preds = %invoke.cont, %if.end
  %13 = landingpad { ptr, i32 }
          cleanup
  %14 = extractvalue { ptr, i32 } %13, 0
  store ptr %14, ptr %exn.slot, align 8
  %15 = extractvalue { ptr, i32 } %13, 1
  store i32 %15, ptr %ehselector.slot, align 4
  call void @_ZN6icu_7521ConfusabledataBuilderD1Ev(ptr noundef nonnull align 8 dereferenceable(84) %builder) #6
  br label %eh.resume

if.end5:                                          ; preds = %if.then4, %land.lhs.true, %invoke.cont1
  call void @_ZN6icu_7521ConfusabledataBuilderD1Ev(ptr noundef nonnull align 8 dereferenceable(84) %builder) #6
  br label %return

return:                                           ; preds = %if.end5, %if.then
  ret void

eh.resume:                                        ; preds = %lpad
  %exn = load ptr, ptr %exn.slot, align 8
  %sel = load i32, ptr %ehselector.slot, align 4
  %lpad.val = insertvalue { ptr, i32 } poison, ptr %exn, 0
  %lpad.val6 = insertvalue { ptr, i32 } %lpad.val, i32 %sel, 1
  resume { ptr, i32 } %lpad.val6
}