; Function Attrs: mustprogress uwtable
define void @_ZN6icu_7521ConfusabledataBuilder19buildConfusableDataEPNS_9SpoofImplEPKciPiP11UParseErrorR10UErrorCode(ptr noundef %spImpl, ptr noundef %confusables, i32 noundef %confusablesLen, ptr noundef writeonly %errorType, ptr nocapture noundef writeonly %pe, ptr noundef nonnull align 4 dereferenceable(4) %status) local_unnamed_addr #2 align 2 personality ptr @__gxx_personality_v0 {
entry:
  %builder = alloca %"class.icu_75::ConfusabledataBuilder", align 8
  %0 = load i32, ptr %status, align 4
  %cmp.i = icmp slt i32 %0, 1
  br i1 %cmp.i, label %if.end, label %return

if.end:                                           ; preds = %entry
  call void @_ZN6icu_7521ConfusabledataBuilderC1EPNS_9SpoofImplER10UErrorCode(ptr noundef nonnull align 8 dereferenceable(84) %builder, ptr noundef %spImpl, ptr noundef nonnull align 4 dereferenceable(4) %status)
  invoke void @_ZN6icu_7521ConfusabledataBuilder5buildEPKciR10UErrorCode(ptr noundef nonnull align 8 dereferenceable(84) %builder, ptr noundef %confusables, i32 noundef %confusablesLen, ptr noundef nonnull align 4 dereferenceable(4) %status)
          to label %invoke.cont unwind label %lpad

invoke.cont:                                      ; preds = %if.end
  %1 = load i32, ptr %status, align 4
  %cmp.i5 = icmp sgt i32 %1, 0
  %cmp = icmp ne ptr %errorType, null
  %or.cond = and i1 %cmp, %cmp.i5
  br i1 %or.cond, label %if.then4, label %if.end5

if.then4:                                         ; preds = %invoke.cont
  store i32 1, ptr %errorType, align 4
  %fLineNum = getelementptr inbounds i8, ptr %builder, i64 80
  %2 = load i32, ptr %fLineNum, align 8
  store i32 %2, ptr %pe, align 4
  br label %if.end5

lpad:                                             ; preds = %if.end
  %3 = landingpad { ptr, i32 }
          cleanup
  call void @_ZN6icu_7521ConfusabledataBuilderD1Ev(ptr noundef nonnull align 8 dereferenceable(84) %builder) #10
  resume { ptr, i32 } %3

if.end5:                                          ; preds = %if.then4, %invoke.cont
  call void @_ZN6icu_7521ConfusabledataBuilderD1Ev(ptr noundef nonnull align 8 dereferenceable(84) %builder) #10
  br label %return

return:                                           ; preds = %entry, %if.end5
  ret void
}